; Function Attrs: alwaysinline norecurse nounwind ssp uwtable
define internal void @"_ZN6open3d4core15ParallelForCPU_IZZZNS_1t8geometry6kernel5image16ColorizeDepthCPUERKNS0_6TensorERS6_fffENK3$_0clEvENKUlvE1_clEvEUllE_EEvRKNS0_6DeviceElRKT_.omp_outlined"(ptr noalias noundef readonly captures(none) %0, ptr noalias readnone captures(none) %1, ptr noundef nonnull readonly align 8 captures(none) dereferenceable(8) %2, ptr noundef nonnull readonly align 8 captures(none) dereferenceable(136) %3) #15 personality ptr @__gxx_personality_v0 {
  %5 = alloca i64, align 8
  %6 = alloca i64, align 8
  %7 = alloca i64, align 8
  %8 = alloca i32, align 4
  %9 = load i64, ptr %2, align 8, !tbaa !36
  %10 = icmp sgt i64 %9, 0
  br i1 %10, label %11, label %67

11:                                               ; preds = %4
  %12 = add nsw i64 %9, -1
  call void @llvm.lifetime.start.p0(i64 8, ptr nonnull %5) #16
  store i64 0, ptr %5, align 8, !tbaa !36
  call void @llvm.lifetime.start.p0(i64 8, ptr nonnull %6) #16
  store i64 %12, ptr %6, align 8, !tbaa !36
  call void @llvm.lifetime.start.p0(i64 8, ptr nonnull %7) #16
  store i64 1, ptr %7, align 8, !tbaa !36
  call void @llvm.lifetime.start.p0(i64 4, ptr nonnull %8) #16
  store i32 0, ptr %8, align 4, !tbaa !16
  %13 = load i32, ptr %0, align 4, !tbaa !16
  call void @__kmpc_for_static_init_8(ptr nonnull @1, i32 %13, i32 34, ptr nonnull %8, ptr nonnull %5, ptr nonnull %6, ptr nonnull %7, i64 1, i64 1)
  %14 = load i64, ptr %6, align 8, !tbaa !36
  %15 = call i64 @llvm.smin.i64(i64 %14, i64 %12)
  store i64 %15, ptr %6, align 8, !tbaa !36
  %16 = load i64, ptr %5, align 8, !tbaa !36
  %.not13 = icmp sgt i64 %16, %15
  br i1 %.not13, label %._crit_edge, label %.lr.ph

.lr.ph:                                           ; preds = %11
  %17 = getelementptr inbounds nuw i8, ptr %3, i64 8
  %18 = getelementptr inbounds nuw i8, ptr %3, i64 40
  %19 = getelementptr inbounds nuw i8, ptr %3, i64 16
  %20 = getelementptr inbounds nuw i8, ptr %3, i64 64
  %21 = getelementptr inbounds nuw i8, ptr %3, i64 68
  %22 = getelementptr inbounds nuw i8, ptr %3, i64 72
  %23 = getelementptr inbounds nuw i8, ptr %3, i64 76
  %24 = getelementptr inbounds nuw i8, ptr %3, i64 80
  %25 = getelementptr inbounds nuw i8, ptr %3, i64 112
  %26 = getelementptr inbounds nuw i8, ptr %3, i64 88
  br label %27

27:                                               ; preds = %.lr.ph, %27
  %.014 = phi i64 [ %16, %.lr.ph ], [ %65, %27 ]
  %28 = load i64, ptr %3, align 8, !tbaa !1470
  %29 = sdiv i64 %.014, %28
  %30 = srem i64 %.014, %28
  %31 = load i64, ptr %18, align 8, !tbaa !36
  %32 = mul nsw i64 %31, %29
  %33 = add nsw i64 %32, %30
  %34 = load ptr, ptr %17, align 8, !tbaa !1334
  %35 = load i64, ptr %19, align 8, !tbaa !1320
  %36 = mul nsw i64 %33, %35
  %37 = getelementptr inbounds i8, ptr %34, i64 %36
  %38 = load i8, ptr %37, align 1, !tbaa !15
  %39 = sitofp i8 %38 to float
  %40 = load float, ptr %20, align 8, !tbaa !1472
  %41 = fdiv float %39, %40
  %42 = load float, ptr %21, align 4, !tbaa !1473
  %.inv.i = fcmp ole float %41, %42
  %..i = select i1 %.inv.i, float %42, float %41
  %43 = load float, ptr %22, align 8, !tbaa !1474
  %.inv21.i = fcmp oge float %..i, %43
  %44 = select i1 %.inv21.i, float %43, float %..i
  %45 = load float, ptr %23, align 4, !tbaa !1475
  %46 = fsub float %44, %42
  %47 = fmul float %45, %46
  %48 = fptosi float %47 to i32
  %49 = load i64, ptr %25, align 8, !tbaa !36
  %50 = mul nsw i64 %49, %29
  %51 = add nsw i64 %50, %30
  %52 = load ptr, ptr %24, align 8, !tbaa !1334
  %53 = load i64, ptr %26, align 8, !tbaa !1320
  %54 = mul nsw i64 %51, %53
  %55 = getelementptr inbounds i8, ptr %52, i64 %54
  %56 = sext i32 %48 to i64
  %57 = getelementptr inbounds [256 x [3 x i8]], ptr @_ZN12_GLOBAL__N_116turbo_srgb_bytesE, i64 0, i64 %56
  %58 = load i8, ptr %57, align 1, !tbaa !15
  store i8 %58, ptr %55, align 1, !tbaa !15
  %59 = getelementptr inbounds nuw i8, ptr %57, i64 1
  %60 = load i8, ptr %59, align 1, !tbaa !15
  %61 = getelementptr inbounds nuw i8, ptr %55, i64 1
  store i8 %60, ptr %61, align 1, !tbaa !15
  %62 = getelementptr inbounds nuw i8, ptr %57, i64 2
  %63 = load i8, ptr %62, align 1, !tbaa !15
  %64 = getelementptr inbounds nuw i8, ptr %55, i64 2
  store i8 %63, ptr %64, align 1, !tbaa !15
  %65 = add nsw i64 %.014, 1
  %66 = load i64, ptr %6, align 8, !tbaa !36
  %.not.not = icmp slt i64 %.014, %66
  br i1 %.not.not, label %27, label %._crit_edge

._crit_edge:                                      ; preds = %27, %11
  call void @__kmpc_for_static_fini(ptr nonnull @1, i32 %13)
  call void @llvm.lifetime.end.p0(i64 4, ptr nonnull %8) #16
  call void @llvm.lifetime.end.p0(i64 8, ptr nonnull %7) #16
  call void @llvm.lifetime.end.p0(i64 8, ptr nonnull %6) #16
  call void @llvm.lifetime.end.p0(i64 8, ptr nonnull %5) #16
  br label %67

67:                                               ; preds = %._crit_edge, %4
  ret void
}